target datalayout = "e-m:e-p270:32:32-p271:32:32-p272:64:64-i64:64-i128:128-f80:128-n8:16:32:64-S128"
target triple = "x86_64-pc-linux-gnu"

%class.Moves = type { i32, i32, i32, i32, i32, i32, i32, i32, i32, [13 x %"struct.Moves::trackType"], ptr, [13 x [4 x %struct.movePlyType]], ptr, [13 x [4 x i32]], [13 x %"class.std::__cxx11::basic_string"], [13 x [4 x %"struct.Moves::moveStatType"]], [13 x [4 x %"struct.Moves::moveStatType"]], [13 x [4 x %"struct.Moves::moveStatsType"]], [13 x [4 x %"struct.Moves::moveStatsType"]], %"struct.Moves::moveStatsType", %"struct.Moves::moveStatsType", [16 x { i64, i64 }] }
%"struct.Moves::trackType" = type { i32, i32, [4 x i32], [4 x i32], %struct.trickDataType, [4 x %struct.extCard], [4 x i32], [4 x [4 x i32]], [4 x i32] }
%struct.trickDataType = type { [4 x i32], i32, i32, i32, i32, i32 }
%struct.extCard = type { i32, i32, i32 }
%struct.movePlyType = type { [14 x %struct.moveType], i32, i32 }
%struct.moveType = type { i32, i32, i32, i32 }
%"class.std::__cxx11::basic_string" = type { %"struct.std::__cxx11::basic_string<char>::_Alloc_hider", i64, %union.anon }
%"struct.std::__cxx11::basic_string<char>::_Alloc_hider" = type { ptr }
%union.anon = type { i64, [8 x i8] }
%"struct.Moves::moveStatType" = type { i32, i32, i32, i32 }
%"struct.Moves::moveStatsType" = type { i32, [13 x %"struct.Moves::moveStatType"] }

; Function Attrs: mustprogress nounwind uwtable
define void @_ZN5Moves27WeightAllocCombinedNotvoid3ERK3pos(ptr noundef nonnull align 8 dereferenceable(39992) %0, ptr noundef nonnull align 4 dereferenceable(1544) %1) #5 align 2 {
  %3 = alloca ptr, align 8
  %4 = alloca ptr, align 8
  %5 = alloca i32, align 4
  %6 = alloca i32, align 4
  store ptr %0, ptr %3, align 8
  store ptr %1, ptr %4, align 8
  %7 = load ptr, ptr %3, align 8
  %8 = getelementptr inbounds nuw %class.Moves, ptr %7, i32 0, i32 10
  %9 = load ptr, ptr %8, align 8
  %10 = getelementptr inbounds nuw %"struct.Moves::trackType", ptr %9, i32 0, i32 6
  %11 = getelementptr inbounds [4 x i32], ptr %10, i64 0, i64 2
  %12 = load i32, ptr %11, align 4
  %13 = icmp eq i32 %12, 1
  br i1 %13, label %30, label %14

14:                                               ; preds = %2
  %15 = getelementptr inbounds nuw %class.Moves, ptr %7, i32 0, i32 1
  %16 = load i32, ptr %15, align 4
  %17 = getelementptr inbounds nuw %class.Moves, ptr %7, i32 0, i32 5
  %18 = load i32, ptr %17, align 4
  %19 = icmp ne i32 %16, %18
  br i1 %19, label %20, label %55

20:                                               ; preds = %14
  %21 = getelementptr inbounds nuw %class.Moves, ptr %7, i32 0, i32 10
  %22 = load ptr, ptr %21, align 8
  %23 = getelementptr inbounds nuw %"struct.Moves::trackType", ptr %22, i32 0, i32 5
  %24 = getelementptr inbounds [4 x %struct.extCard], ptr %23, i64 0, i64 2
  %25 = getelementptr inbounds nuw %struct.extCard, ptr %24, i32 0, i32 0
  %26 = load i32, ptr %25, align 4
  %27 = getelementptr inbounds nuw %class.Moves, ptr %7, i32 0, i32 5
  %28 = load i32, ptr %27, align 4
  %29 = icmp eq i32 %26, %28
  br i1 %29, label %30, label %55

30:                                               ; preds = %20, %2
  store i32 0, ptr %5, align 4
  br label %31

31:                                               ; preds = %51, %30
  %32 = load i32, ptr %5, align 4
  %33 = getelementptr inbounds nuw %class.Moves, ptr %7, i32 0, i32 7
  %34 = load i32, ptr %33, align 4
  %35 = icmp slt i32 %32, %34
  br i1 %35, label %36, label %54

36:                                               ; preds = %31
  %37 = getelementptr inbounds nuw %class.Moves, ptr %7, i32 0, i32 12
  %38 = load ptr, ptr %37, align 8
  %39 = load i32, ptr %5, align 4
  %40 = sext i32 %39 to i64
  %41 = getelementptr inbounds %struct.moveType, ptr %38, i64 %40
  %42 = getelementptr inbounds nuw %struct.moveType, ptr %41, i32 0, i32 1
  %43 = load i32, ptr %42, align 4
  %44 = sub nsw i32 0, %43
  %45 = getelementptr inbounds nuw %class.Moves, ptr %7, i32 0, i32 12
  %46 = load ptr, ptr %45, align 8
  %47 = load i32, ptr %5, align 4
  %48 = sext i32 %47 to i64
  %49 = getelementptr inbounds %struct.moveType, ptr %46, i64 %48
  %50 = getelementptr inbounds nuw %struct.moveType, ptr %49, i32 0, i32 3
  store i32 %44, ptr %50, align 4
  br label %51

51:                                               ; preds = %36
  %52 = load i32, ptr %5, align 4
  %53 = add nsw i32 %52, 1
  store i32 %53, ptr %5, align 4
  br label %31, !llvm.loop !40

54:                                               ; preds = %31
  br label %111

55:                                               ; preds = %20, %14
  store i32 0, ptr %6, align 4
  br label %56

56:                                               ; preds = %107, %55
  %57 = load i32, ptr %6, align 4
  %58 = getelementptr inbounds nuw %class.Moves, ptr %7, i32 0, i32 7
  %59 = load i32, ptr %58, align 4
  %60 = icmp slt i32 %57, %59
  br i1 %60, label %61, label %110

61:                                               ; preds = %56
  %62 = getelementptr inbounds nuw %class.Moves, ptr %7, i32 0, i32 12
  %63 = load ptr, ptr %62, align 8
  %64 = load i32, ptr %6, align 4
  %65 = sext i32 %64 to i64
  %66 = getelementptr inbounds %struct.moveType, ptr %63, i64 %65
  %67 = getelementptr inbounds nuw %struct.moveType, ptr %66, i32 0, i32 1
  %68 = load i32, ptr %67, align 4
  %69 = getelementptr inbounds nuw %class.Moves, ptr %7, i32 0, i32 10
  %70 = load ptr, ptr %69, align 8
  %71 = getelementptr inbounds nuw %"struct.Moves::trackType", ptr %70, i32 0, i32 5
  %72 = getelementptr inbounds [4 x %struct.extCard], ptr %71, i64 0, i64 2
  %73 = getelementptr inbounds nuw %struct.extCard, ptr %72, i32 0, i32 1
  %74 = load i32, ptr %73, align 4
  %75 = icmp sgt i32 %68, %74
  br i1 %75, label %76, label %91

76:                                               ; preds = %61
  %77 = getelementptr inbounds nuw %class.Moves, ptr %7, i32 0, i32 12
  %78 = load ptr, ptr %77, align 8
  %79 = load i32, ptr %6, align 4
  %80 = sext i32 %79 to i64
  %81 = getelementptr inbounds %struct.moveType, ptr %78, i64 %80
  %82 = getelementptr inbounds nuw %struct.moveType, ptr %81, i32 0, i32 1
  %83 = load i32, ptr %82, align 4
  %84 = sub nsw i32 30, %83
  %85 = getelementptr inbounds nuw %class.Moves, ptr %7, i32 0, i32 12
  %86 = load ptr, ptr %85, align 8
  %87 = load i32, ptr %6, align 4
  %88 = sext i32 %87 to i64
  %89 = getelementptr inbounds %struct.moveType, ptr %86, i64 %88
  %90 = getelementptr inbounds nuw %struct.moveType, ptr %89, i32 0, i32 3
  store i32 %84, ptr %90, align 4
  br label %106

91:                                               ; preds = %61
  %92 = getelementptr inbounds nuw %class.Moves, ptr %7, i32 0, i32 12
  %93 = load ptr, ptr %92, align 8
  %94 = load i32, ptr %6, align 4
  %95 = sext i32 %94 to i64
  %96 = getelementptr inbounds %struct.moveType, ptr %93, i64 %95
  %97 = getelementptr inbounds nuw %struct.moveType, ptr %96, i32 0, i32 1
  %98 = load i32, ptr %97, align 4
  %99 = sub nsw i32 0, %98
  %100 = getelementptr inbounds nuw %class.Moves, ptr %7, i32 0, i32 12
  %101 = load ptr, ptr %100, align 8
  %102 = load i32, ptr %6, align 4
  %103 = sext i32 %102 to i64
  %104 = getelementptr inbounds %struct.moveType, ptr %101, i64 %103
  %105 = getelementptr inbounds nuw %struct.moveType, ptr %104, i32 0, i32 3
  store i32 %99, ptr %105, align 4
  br label %106

106:                                              ; preds = %91, %76
  br label %107

107:                                              ; preds = %106
  %108 = load i32, ptr %6, align 4
  %109 = add nsw i32 %108, 1
  store i32 %109, ptr %6, align 4
  br label %56, !llvm.loop !41

110:                                              ; preds = %56
  br label %111

111:                                              ; preds = %110, %54
  ret void
}