; Function Attrs: mustprogress nofree norecurse nosync nounwind memory(readwrite, inaccessiblemem: none) uwtable
define void @_ZN5Moves27WeightAllocCombinedNotvoid3ERK3pos(ptr nocapture noundef nonnull readonly align 8 dereferenceable(39992) %0, ptr nocapture nonnull readnone align 4 %1) #4 align 2 {
  %3 = getelementptr inbounds nuw i8, ptr %0, i64 2896
  %4 = load ptr, ptr %3, align 8
  %5 = getelementptr inbounds i8, ptr %4, i64 132
  %6 = load i32, ptr %5, align 4
  %7 = icmp eq i32 %6, 1
  br i1 %7, label %17, label %8

8:                                                ; preds = %2
  %9 = getelementptr inbounds nuw i8, ptr %0, i64 4
  %10 = load i32, ptr %9, align 4
  %11 = getelementptr inbounds nuw i8, ptr %0, i64 20
  %12 = load i32, ptr %11, align 4
  %.not = icmp eq i32 %10, %12
  br i1 %.not, label %32, label %13

13:                                               ; preds = %8
  %14 = getelementptr inbounds i8, ptr %4, i64 100
  %15 = load i32, ptr %14, align 4
  %16 = icmp eq i32 %15, %12
  br i1 %16, label %17, label %32

17:                                               ; preds = %13, %2
  %18 = getelementptr inbounds nuw i8, ptr %0, i64 28
  %19 = load i32, ptr %18, align 4
  %20 = icmp sgt i32 %19, 0
  br i1 %20, label %.lr.ph17, label %.loopexit

.lr.ph17:                                         ; preds = %17
  %21 = getelementptr inbounds nuw i8, ptr %0, i64 14968
  br label %22

22:                                               ; preds = %.lr.ph17, %22
  %indvars.iv20 = phi i64 [ 0, %.lr.ph17 ], [ %indvars.iv.next21, %22 ]
  %23 = load ptr, ptr %21, align 8
  %24 = getelementptr inbounds %struct.moveType, ptr %23, i64 %indvars.iv20
  %25 = getelementptr inbounds nuw i8, ptr %24, i64 4
  %26 = load i32, ptr %25, align 4
  %27 = sub nsw i32 0, %26
  %28 = getelementptr inbounds nuw i8, ptr %24, i64 12
  store i32 %27, ptr %28, align 4
  %indvars.iv.next21 = add nuw nsw i64 %indvars.iv20, 1
  %29 = load i32, ptr %18, align 4
  %30 = sext i32 %29 to i64
  %31 = icmp slt i64 %indvars.iv.next21, %30
  br i1 %31, label %22, label %.loopexit, !llvm.loop !45

32:                                               ; preds = %13, %8
  %33 = getelementptr inbounds nuw i8, ptr %0, i64 28
  %34 = load i32, ptr %33, align 4
  %35 = icmp sgt i32 %34, 0
  br i1 %35, label %.lr.ph, label %.loopexit

.lr.ph:                                           ; preds = %32
  %36 = getelementptr inbounds nuw i8, ptr %0, i64 14968
  br label %37

37:                                               ; preds = %.lr.ph, %37
  %indvars.iv = phi i64 [ 0, %.lr.ph ], [ %indvars.iv.next, %37 ]
  %38 = load ptr, ptr %36, align 8
  %39 = getelementptr inbounds %struct.moveType, ptr %38, i64 %indvars.iv
  %40 = getelementptr inbounds nuw i8, ptr %39, i64 4
  %41 = load i32, ptr %40, align 4
  %42 = load ptr, ptr %3, align 8
  %43 = getelementptr inbounds i8, ptr %42, i64 104
  %44 = load i32, ptr %43, align 4
  %45 = icmp sgt i32 %41, %44
  %spec.select = select i1 %45, i32 30, i32 0
  %.sink = sub nsw i32 %spec.select, %41
  %46 = getelementptr inbounds nuw i8, ptr %39, i64 12
  store i32 %.sink, ptr %46, align 4
  %indvars.iv.next = add nuw nsw i64 %indvars.iv, 1
  %47 = load i32, ptr %33, align 4
  %48 = sext i32 %47 to i64
  %49 = icmp slt i64 %indvars.iv.next, %48
  br i1 %49, label %37, label %.loopexit, !llvm.loop !46

.loopexit:                                        ; preds = %37, %22, %32, %17
  ret void
}